target datalayout = "e-m:e-p270:32:32-p271:32:32-p272:64:64-i64:64-i128:128-f80:128-n8:16:32:64-S128"
target triple = "x86_64-pc-linux-gnu"

%struct.AVTXContext = type { i32, i32, ptr, ptr, ptr, ptr, [4 x ptr], i32, [4 x ptr], ptr, i32, i64, i32, float, double, ptr }
%struct.FFTXCodeletOptions = type { i32 }

@.str = private unnamed_addr constant [30 x i8] c"Assertion %s failed at %s:%d\0A\00", align 1
@.str.1 = private unnamed_addr constant [51 x i8] c"!dual_stride || !(dual_stride & (dual_stride - 1))\00", align 1
@.str.2 = private unnamed_addr constant [15 x i8] c"libavutil/tx.c\00", align 1
@.str.3 = private unnamed_addr constant [21 x i8] c"dual_stride <= basis\00", align 1

; Function Attrs: nounwind uwtable
define i32 @ff_tx_gen_split_radix_parity_revtab(ptr noundef %0, i32 noundef %1, i32 noundef %2, ptr noundef %3, i32 noundef %4, i32 noundef %5) #0 {
  %7 = alloca i32, align 4
  %8 = alloca ptr, align 8
  %9 = alloca i32, align 4
  %10 = alloca i32, align 4
  %11 = alloca ptr, align 8
  %12 = alloca i32, align 4
  %13 = alloca i32, align 4
  store ptr %0, ptr %8, align 8, !tbaa !4
  store i32 %1, ptr %9, align 4, !tbaa !11
  store i32 %2, ptr %10, align 4, !tbaa !11
  store ptr %3, ptr %11, align 8, !tbaa !9
  store i32 %4, ptr %12, align 4, !tbaa !11
  store i32 %5, ptr %13, align 4, !tbaa !11
  %14 = load i32, ptr %12, align 4, !tbaa !11
  %15 = ashr i32 %14, 1
  store i32 %15, ptr %12, align 4, !tbaa !11
  %16 = load i32, ptr %9, align 4, !tbaa !11
  %17 = load i32, ptr %12, align 4, !tbaa !11
  %18 = icmp slt i32 %16, %17
  br i1 %18, label %19, label %20

19:                                               ; preds = %6
  store i32 -22, ptr %7, align 4
  br label %79

20:                                               ; preds = %6
  %21 = load i32, ptr %9, align 4, !tbaa !11
  %22 = sext i32 %21 to i64
  %23 = mul i64 %22, 4
  %24 = call noalias ptr @av_mallocz(i64 noundef %23)
  %25 = load ptr, ptr %8, align 8, !tbaa !4
  %26 = getelementptr inbounds nuw %struct.AVTXContext, ptr %25, i32 0, i32 2
  store ptr %24, ptr %26, align 8, !tbaa !20
  %27 = icmp ne ptr %24, null
  br i1 %27, label %29, label %28

28:                                               ; preds = %20
  store i32 -12, ptr %7, align 4
  br label %79

29:                                               ; preds = %20
  br label %30

30:                                               ; preds = %29
  %31 = load i32, ptr %13, align 4, !tbaa !11
  %32 = icmp ne i32 %31, 0
  br i1 %32, label %33, label %40

33:                                               ; preds = %30
  %34 = load i32, ptr %13, align 4, !tbaa !11
  %35 = load i32, ptr %13, align 4, !tbaa !11
  %36 = sub nsw i32 %35, 1
  %37 = and i32 %34, %36
  %38 = icmp ne i32 %37, 0
  br i1 %38, label %39, label %40

39:                                               ; preds = %33
  call void (ptr, i32, ptr, ...) @av_log(ptr noundef null, i32 noundef 0, ptr noundef @.str, ptr noundef @.str.1, ptr noundef @.str.2, i32 noundef 252)
  call void @abort() #13
  unreachable

40:                                               ; preds = %33, %30
  br label %41

41:                                               ; preds = %40
  br label %42

42:                                               ; preds = %41
  %43 = load i32, ptr %13, align 4, !tbaa !11
  %44 = load i32, ptr %12, align 4, !tbaa !11
  %45 = icmp sle i32 %43, %44
  br i1 %45, label %47, label %46

46:                                               ; preds = %42
  call void (ptr, i32, ptr, ...) @av_log(ptr noundef null, i32 noundef 0, ptr noundef @.str, ptr noundef @.str.3, ptr noundef @.str.2, i32 noundef 253)
  call void @abort() #13
  unreachable

47:                                               ; preds = %42
  br label %48

48:                                               ; preds = %47
  %49 = load ptr, ptr %8, align 8, !tbaa !4
  %50 = getelementptr inbounds nuw %struct.AVTXContext, ptr %49, i32 0, i32 2
  %51 = load ptr, ptr %50, align 8, !tbaa !20
  %52 = load i32, ptr %9, align 4, !tbaa !11
  %53 = load i32, ptr %10, align 4, !tbaa !11
  %54 = load i32, ptr %9, align 4, !tbaa !11
  %55 = load i32, ptr %12, align 4, !tbaa !11
  %56 = load i32, ptr %13, align 4, !tbaa !11
  %57 = load ptr, ptr %11, align 8, !tbaa !9
  %58 = icmp ne ptr %57, null
  br i1 %58, label %59, label %65

59:                                               ; preds = %48
  %60 = load ptr, ptr %11, align 8, !tbaa !9
  %61 = getelementptr inbounds nuw %struct.FFTXCodeletOptions, ptr %60, i32 0, i32 0
  %62 = load i32, ptr %61, align 4, !tbaa !22
  %63 = icmp eq i32 %62, 1
  %64 = zext i1 %63 to i32
  br label %66

65:                                               ; preds = %48
  br label %66

66:                                               ; preds = %65, %59
  %67 = phi i32 [ %64, %59 ], [ 1, %65 ]
  call void @parity_revtab_generator(ptr noundef %51, i32 noundef %52, i32 noundef %53, i32 noundef 0, i32 noundef 0, i32 noundef 0, i32 noundef %54, i32 noundef %55, i32 noundef %56, i32 noundef %67)
  %68 = load ptr, ptr %11, align 8, !tbaa !9
  %69 = icmp ne ptr %68, null
  br i1 %69, label %70, label %74

70:                                               ; preds = %66
  %71 = load ptr, ptr %11, align 8, !tbaa !9
  %72 = getelementptr inbounds nuw %struct.FFTXCodeletOptions, ptr %71, i32 0, i32 0
  %73 = load i32, ptr %72, align 4, !tbaa !22
  br label %75

74:                                               ; preds = %66
  br label %75

75:                                               ; preds = %74, %70
  %76 = phi i32 [ %73, %70 ], [ 1, %74 ]
  %77 = load ptr, ptr %8, align 8, !tbaa !4
  %78 = getelementptr inbounds nuw %struct.AVTXContext, ptr %77, i32 0, i32 12
  store i32 %76, ptr %78, align 8, !tbaa !31
  store i32 0, ptr %7, align 4
  br label %79

79:                                               ; preds = %75, %28, %19
  %80 = load i32, ptr %7, align 4
  ret i32 %80
}