; Function Attrs: nounwind uwtable
define range(i32 -22, 1) i32 @ff_tx_gen_split_radix_parity_revtab(ptr noundef writeonly captures(none) %0, i32 noundef %1, i32 noundef %2, ptr noundef readonly captures(address_is_null) %3, i32 noundef %4, i32 noundef %5) local_unnamed_addr #0 {
  %7 = ashr i32 %4, 1
  %8 = icmp slt i32 %1, %7
  br i1 %8, label %26, label %9

9:                                                ; preds = %6
  %10 = sext i32 %1 to i64
  %11 = shl nsw i64 %10, 2
  %12 = tail call noalias ptr @av_mallocz(i64 noundef %11) #13
  %13 = getelementptr inbounds nuw i8, ptr %0, i64 8
  store ptr %12, ptr %13, align 8, !tbaa !16
  %.not = icmp eq ptr %12, null
  br i1 %.not, label %26, label %14

14:                                               ; preds = %9
  %15 = tail call range(i32 0, 33) i32 @llvm.ctpop.i32(i32 %5)
  %.not27 = icmp samesign ult i32 %15, 2
  br i1 %.not27, label %17, label %16

16:                                               ; preds = %14
  tail call void (ptr, i32, ptr, ...) @av_log(ptr noundef null, i32 noundef 0, ptr noundef nonnull @.str, ptr noundef nonnull @.str.1, ptr noundef nonnull @.str.2, i32 noundef 252) #13
  tail call void @abort() #15
  unreachable

17:                                               ; preds = %14
  %.not28 = icmp sgt i32 %5, %7
  br i1 %.not28, label %18, label %19

18:                                               ; preds = %17
  tail call void (ptr, i32, ptr, ...) @av_log(ptr noundef null, i32 noundef 0, ptr noundef nonnull @.str, ptr noundef nonnull @.str.3, ptr noundef nonnull @.str.2, i32 noundef 253) #13
  tail call void @abort() #15
  unreachable

19:                                               ; preds = %17
  %.not29 = icmp eq ptr %3, null
  br i1 %.not29, label %.critedge, label %20

20:                                               ; preds = %19
  %21 = load i32, ptr %3, align 4, !tbaa !18
  %22 = icmp eq i32 %21, 1
  %23 = zext i1 %22 to i32
  br label %.critedge

.critedge:                                        ; preds = %19, %20
  %.sink = phi i32 [ %23, %20 ], [ 1, %19 ]
  %24 = phi i32 [ %21, %20 ], [ 1, %19 ]
  tail call fastcc void @parity_revtab_generator(ptr noundef nonnull %12, i32 noundef %1, i32 noundef %2, i32 noundef 0, i32 noundef 0, i32 noundef 0, i32 noundef %1, i32 noundef %7, i32 noundef %5, i32 noundef %.sink)
  %25 = getelementptr inbounds nuw i8, ptr %0, i64 136
  store i32 %24, ptr %25, align 8, !tbaa !28
  br label %26

26:                                               ; preds = %9, %6, %.critedge
  %.0 = phi i32 [ 0, %.critedge ], [ -22, %6 ], [ -12, %9 ]
  ret i32 %.0
}